target datalayout = "e-m:e-p270:32:32-p271:32:32-p272:64:64-i64:64-i128:128-f80:128-n8:16:32:64-S128"
target triple = "x86_64-unknown-linux-gnu"

%"class.icu_75::Normalizer2DataBuilder" = type <{ %"class.icu_75::Norms", i32, i32, i32, [20 x i32], [4 x i8], ptr, i32, [4 x i8], %"class.icu_75::UnicodeString", [256 x i8], [4 x i8], [4 x i8] }>
%"class.icu_75::Norms" = type { %"class.icu_75::UnicodeSet", %"class.icu_75::UnicodeSet", ptr, ptr, ptr }
%"class.icu_75::UnicodeSet" = type <{ %"class.icu_75::UnicodeFilter", ptr, i32, i32, i8, [7 x i8], ptr, ptr, i32, [4 x i8], ptr, i32, [4 x i8], ptr, ptr, [25 x i32], [4 x i8] }>
%"class.icu_75::UnicodeFilter" = type { %"class.icu_75::UnicodeFunctor", %"class.icu_75::UnicodeMatcher" }
%"class.icu_75::UnicodeFunctor" = type { %"class.icu_75::UObject" }
%"class.icu_75::UObject" = type { ptr }
%"class.icu_75::UnicodeMatcher" = type { ptr }
%"class.icu_75::UnicodeString" = type { %"class.icu_75::Replaceable", %"union.icu_75::UnicodeString::StackBufferOrFields" }
%"class.icu_75::Replaceable" = type { %"class.icu_75::UObject" }
%"union.icu_75::UnicodeString::StackBufferOrFields" = type { %struct.anon.0, [32 x i8] }
%struct.anon.0 = type { i16, i32, i32, ptr }

; Function Attrs: mustprogress nounwind uwtable
define dso_local void @_ZN6icu_7522Normalizer2DataBuilder19setOverrideHandlingENS0_16OverrideHandlingE(ptr noundef nonnull align 8 dereferenceable(860) %this, i32 noundef %oh) #0 align 2 {
entry:
  %this.addr = alloca ptr, align 8
  %oh.addr = alloca i32, align 4
  store ptr %this, ptr %this.addr, align 8
  store i32 %oh, ptr %oh.addr, align 4
  %this1 = load ptr, ptr %this.addr, align 8
  %0 = load i32, ptr %oh.addr, align 4
  %overrideHandling = getelementptr inbounds %"class.icu_75::Normalizer2DataBuilder", ptr %this1, i32 0, i32 2
  store i32 %0, ptr %overrideHandling, align 4
  %phase = getelementptr inbounds %"class.icu_75::Normalizer2DataBuilder", ptr %this1, i32 0, i32 1
  %1 = load i32, ptr %phase, align 8
  %inc = add nsw i32 %1, 1
  store i32 %inc, ptr %phase, align 8
  ret void
}