; Function Attrs: mustprogress nofree norecurse nosync nounwind willreturn memory(argmem: readwrite) uwtable
define dso_local void @_ZN6icu_7522Normalizer2DataBuilder19setOverrideHandlingENS0_16OverrideHandlingE(ptr nocapture noundef nonnull align 8 dereferenceable(860) %this, i32 noundef %oh) local_unnamed_addr #11 align 2 {
entry:
  %overrideHandling = getelementptr inbounds i8, ptr %this, i64 428
  store i32 %oh, ptr %overrideHandling, align 4
  %phase = getelementptr inbounds i8, ptr %this, i64 424
  %0 = load i32, ptr %phase, align 8
  %inc = add nsw i32 %0, 1
  store i32 %inc, ptr %phase, align 8
  ret void
}